target datalayout = "e-m:e-p270:32:32-p271:32:32-p272:64:64-i64:64-i128:128-f80:128-n8:16:32:64-S128"
target triple = "x86_64-pc-linux-gnu"

%struct.decNumber = type { i32, i32, i8, [1 x i16] }
%struct.decContext = type { i32, i32, i32, i32, i32, i32, i8 }

; Function Attrs: nounwind uwtable
define dso_local ptr @decNumberZero(ptr noundef %0) #0 {
  %2 = alloca ptr, align 8
  store ptr %0, ptr %2, align 8, !tbaa !4
  %3 = load ptr, ptr %2, align 8, !tbaa !4
  %4 = getelementptr inbounds nuw %struct.decNumber, ptr %3, i32 0, i32 2
  store i8 0, ptr %4, align 4, !tbaa !10
  %5 = load ptr, ptr %2, align 8, !tbaa !4
  %6 = getelementptr inbounds nuw %struct.decNumber, ptr %5, i32 0, i32 1
  store i32 0, ptr %6, align 4, !tbaa !19
  %7 = load ptr, ptr %2, align 8, !tbaa !4
  %8 = getelementptr inbounds nuw %struct.decNumber, ptr %7, i32 0, i32 0
  store i32 1, ptr %8, align 4, !tbaa !18
  %9 = load ptr, ptr %2, align 8, !tbaa !4
  %10 = getelementptr inbounds nuw %struct.decNumber, ptr %9, i32 0, i32 3
  %11 = getelementptr inbounds [1 x i16], ptr %10, i64 0, i64 0
  store i16 0, ptr %11, align 2, !tbaa !14
  %12 = load ptr, ptr %2, align 8, !tbaa !4
  ret ptr %12
}

; Function Attrs: nounwind uwtable
define internal void @decStatus(ptr noundef %0, i32 noundef %1, ptr noundef %2) #0 {
  %4 = alloca ptr, align 8
  %5 = alloca i32, align 4
  %6 = alloca ptr, align 8
  store ptr %0, ptr %4, align 8, !tbaa !4
  store i32 %1, ptr %5, align 4, !tbaa !8
  store ptr %2, ptr %6, align 8, !tbaa !4
  %7 = load i32, ptr %5, align 4, !tbaa !8
  %8 = and i32 %7, 221
  %9 = icmp ne i32 %8, 0
  br i1 %9, label %10, label %23

10:                                               ; preds = %3
  %11 = load i32, ptr %5, align 4, !tbaa !8
  %12 = and i32 %11, 1073741824
  %13 = icmp ne i32 %12, 0
  br i1 %13, label %14, label %17

14:                                               ; preds = %10
  %15 = load i32, ptr %5, align 4, !tbaa !8
  %16 = and i32 %15, -1073741825
  store i32 %16, ptr %5, align 4, !tbaa !8
  br label %22

17:                                               ; preds = %10
  %18 = load ptr, ptr %4, align 8, !tbaa !4
  %19 = call ptr @decNumberZero(ptr noundef %18)
  %20 = load ptr, ptr %4, align 8, !tbaa !4
  %21 = getelementptr inbounds nuw %struct.decNumber, ptr %20, i32 0, i32 2
  store i8 32, ptr %21, align 4, !tbaa !10
  br label %22

22:                                               ; preds = %17, %14
  br label %23

23:                                               ; preds = %22, %3
  %24 = load ptr, ptr %6, align 8, !tbaa !4
  %25 = load i32, ptr %5, align 4, !tbaa !8
  %26 = call ptr @decContextSetStatus(ptr noundef %24, i32 noundef %25)
  ret void
}

; Function Attrs: nounwind uwtable
define dso_local ptr @decNumberScaleB(ptr noundef %0, ptr noundef %1, ptr noundef %2, ptr noundef %3) #0 {
  %5 = alloca ptr, align 8
  %6 = alloca ptr, align 8
  %7 = alloca ptr, align 8
  %8 = alloca ptr, align 8
  %9 = alloca i32, align 4
  %10 = alloca i32, align 4
  %11 = alloca i32, align 4
  %12 = alloca i32, align 4
  store ptr %0, ptr %5, align 8, !tbaa !4
  store ptr %1, ptr %6, align 8, !tbaa !4
  store ptr %2, ptr %7, align 8, !tbaa !4
  store ptr %3, ptr %8, align 8, !tbaa !4
  call void @llvm.lifetime.start.p0(i64 4, ptr %9) #7
  call void @llvm.lifetime.start.p0(i64 4, ptr %10) #7
  store i32 0, ptr %10, align 4, !tbaa !8
  call void @llvm.lifetime.start.p0(i64 4, ptr %11) #7
  %13 = load ptr, ptr %6, align 8, !tbaa !4
  %14 = getelementptr inbounds nuw %struct.decNumber, ptr %13, i32 0, i32 2
  %15 = load i8, ptr %14, align 4, !tbaa !10
  %16 = zext i8 %15 to i32
  %17 = and i32 %16, 48
  %18 = icmp ne i32 %17, 0
  br i1 %18, label %26, label %19

19:                                               ; preds = %4
  %20 = load ptr, ptr %7, align 8, !tbaa !4
  %21 = getelementptr inbounds nuw %struct.decNumber, ptr %20, i32 0, i32 2
  %22 = load i8, ptr %21, align 4, !tbaa !10
  %23 = zext i8 %22 to i32
  %24 = and i32 %23, 48
  %25 = icmp ne i32 %24, 0
  br i1 %25, label %26, label %32

26:                                               ; preds = %19, %4
  %27 = load ptr, ptr %5, align 8, !tbaa !4
  %28 = load ptr, ptr %6, align 8, !tbaa !4
  %29 = load ptr, ptr %7, align 8, !tbaa !4
  %30 = load ptr, ptr %8, align 8, !tbaa !4
  %31 = call ptr @decNaNs(ptr noundef %27, ptr noundef %28, ptr noundef %29, ptr noundef %30, ptr noundef %10)
  br label %116

32:                                               ; preds = %19
  %33 = load ptr, ptr %7, align 8, !tbaa !4
  %34 = getelementptr inbounds nuw %struct.decNumber, ptr %33, i32 0, i32 2
  %35 = load i8, ptr %34, align 4, !tbaa !10
  %36 = zext i8 %35 to i32
  %37 = and i32 %36, 64
  %38 = icmp ne i32 %37, 0
  br i1 %38, label %44, label %39

39:                                               ; preds = %32
  %40 = load ptr, ptr %7, align 8, !tbaa !4
  %41 = getelementptr inbounds nuw %struct.decNumber, ptr %40, i32 0, i32 1
  %42 = load i32, ptr %41, align 4, !tbaa !19
  %43 = icmp ne i32 %42, 0
  br i1 %43, label %44, label %45

44:                                               ; preds = %39, %32
  store i32 128, ptr %10, align 4, !tbaa !8
  br label %115

45:                                               ; preds = %39
  %46 = load ptr, ptr %7, align 8, !tbaa !4
  %47 = call i32 @decGetInt(ptr noundef %46)
  store i32 %47, ptr %9, align 4, !tbaa !8
  %48 = load i32, ptr %9, align 4, !tbaa !8
  %49 = icmp eq i32 %48, -2147483648
  br i1 %49, label %69, label %50

50:                                               ; preds = %45
  %51 = load i32, ptr %9, align 4, !tbaa !8
  %52 = icmp eq i32 %51, -2147483645
  br i1 %52, label %69, label %53

53:                                               ; preds = %50
  %54 = load i32, ptr %9, align 4, !tbaa !8
  %55 = icmp eq i32 %54, -2147483646
  br i1 %55, label %69, label %56

56:                                               ; preds = %53
  %57 = load i32, ptr %9, align 4, !tbaa !8
  %58 = call i32 @llvm.abs.i32(i32 %57, i1 true)
  %59 = add nsw i32 %58, 1
  %60 = sdiv i32 %59, 2
  %61 = load ptr, ptr %8, align 8, !tbaa !4
  %62 = getelementptr inbounds nuw %struct.decContext, ptr %61, i32 0, i32 0
  %63 = load i32, ptr %62, align 4, !tbaa !33
  %64 = load ptr, ptr %8, align 8, !tbaa !4
  %65 = getelementptr inbounds nuw %struct.decContext, ptr %64, i32 0, i32 1
  %66 = load i32, ptr %65, align 4, !tbaa !39
  %67 = add nsw i32 %63, %66
  %68 = icmp sgt i32 %60, %67
  br i1 %68, label %69, label %70

69:                                               ; preds = %56, %53, %50, %45
  store i32 128, ptr %10, align 4, !tbaa !8
  br label %114

70:                                               ; preds = %56
  %71 = load ptr, ptr %5, align 8, !tbaa !4
  %72 = load ptr, ptr %6, align 8, !tbaa !4
  %73 = call ptr @decNumberCopy(ptr noundef %71, ptr noundef %72)
  %74 = load ptr, ptr %5, align 8, !tbaa !4
  %75 = getelementptr inbounds nuw %struct.decNumber, ptr %74, i32 0, i32 2
  %76 = load i8, ptr %75, align 4, !tbaa !10
  %77 = zext i8 %76 to i32
  %78 = and i32 %77, 64
  %79 = icmp ne i32 %78, 0
  br i1 %79, label %113, label %80

80:                                               ; preds = %70
  call void @llvm.lifetime.start.p0(i64 4, ptr %12) #7
  %81 = load ptr, ptr %5, align 8, !tbaa !4
  %82 = getelementptr inbounds nuw %struct.decNumber, ptr %81, i32 0, i32 1
  %83 = load i32, ptr %82, align 4, !tbaa !19
  store i32 %83, ptr %12, align 4, !tbaa !8
  %84 = load i32, ptr %9, align 4, !tbaa !8
  %85 = load ptr, ptr %5, align 8, !tbaa !4
  %86 = getelementptr inbounds nuw %struct.decNumber, ptr %85, i32 0, i32 1
  %87 = load i32, ptr %86, align 4, !tbaa !19
  %88 = add nsw i32 %87, %84
  store i32 %88, ptr %86, align 4, !tbaa !19
  %89 = load i32, ptr %12, align 4, !tbaa !8
  %90 = load i32, ptr %9, align 4, !tbaa !8
  %91 = xor i32 %89, %90
  %92 = icmp sge i32 %91, 0
  br i1 %92, label %93, label %110

93:                                               ; preds = %80
  %94 = load i32, ptr %12, align 4, !tbaa !8
  %95 = load ptr, ptr %5, align 8, !tbaa !4
  %96 = getelementptr inbounds nuw %struct.decNumber, ptr %95, i32 0, i32 1
  %97 = load i32, ptr %96, align 4, !tbaa !19
  %98 = xor i32 %94, %97
  %99 = icmp slt i32 %98, 0
  br i1 %99, label %100, label %110

100:                                              ; preds = %93
  %101 = load i32, ptr %12, align 4, !tbaa !8
  %102 = icmp slt i32 %101, 0
  br i1 %102, label %103, label %106

103:                                              ; preds = %100
  %104 = load ptr, ptr %5, align 8, !tbaa !4
  %105 = getelementptr inbounds nuw %struct.decNumber, ptr %104, i32 0, i32 1
  store i32 -1999999998, ptr %105, align 4, !tbaa !19
  br label %109

106:                                              ; preds = %100
  %107 = load ptr, ptr %5, align 8, !tbaa !4
  %108 = getelementptr inbounds nuw %struct.decNumber, ptr %107, i32 0, i32 1
  store i32 1000000000, ptr %108, align 4, !tbaa !19
  br label %109

109:                                              ; preds = %106, %103
  br label %110

110:                                              ; preds = %109, %93, %80
  store i32 0, ptr %11, align 4, !tbaa !8
  %111 = load ptr, ptr %5, align 8, !tbaa !4
  %112 = load ptr, ptr %8, align 8, !tbaa !4
  call void @decFinalize(ptr noundef %111, ptr noundef %112, ptr noundef %11, ptr noundef %10)
  call void @llvm.lifetime.end.p0(i64 4, ptr %12) #7
  br label %113

113:                                              ; preds = %110, %70
  br label %114

114:                                              ; preds = %113, %69
  br label %115

115:                                              ; preds = %114, %44
  br label %116

116:                                              ; preds = %115, %26
  %117 = load i32, ptr %10, align 4, !tbaa !8
  %118 = icmp ne i32 %117, 0
  br i1 %118, label %119, label %123

119:                                              ; preds = %116
  %120 = load ptr, ptr %5, align 8, !tbaa !4
  %121 = load i32, ptr %10, align 4, !tbaa !8
  %122 = load ptr, ptr %8, align 8, !tbaa !4
  call void @decStatus(ptr noundef %120, i32 noundef %121, ptr noundef %122)
  br label %123

123:                                              ; preds = %119, %116
  %124 = load ptr, ptr %5, align 8, !tbaa !4
  call void @llvm.lifetime.end.p0(i64 4, ptr %11) #7
  call void @llvm.lifetime.end.p0(i64 4, ptr %10) #7
  call void @llvm.lifetime.end.p0(i64 4, ptr %9) #7
  ret ptr %124
}