; Function Attrs: nounwind uwtable
define dso_local noundef ptr @decNumberScaleB(ptr noundef returned %0, ptr noundef captures(address) %1, ptr noundef captures(address) %2, ptr noundef %3) local_unnamed_addr #4 {
  %5 = alloca i32, align 4
  %6 = alloca i32, align 4
  call void @llvm.lifetime.start.p0(i64 4, ptr nonnull %5) #18
  store i32 0, ptr %5, align 4, !tbaa !16
  call void @llvm.lifetime.start.p0(i64 4, ptr nonnull %6) #18
  %7 = getelementptr inbounds nuw i8, ptr %1, i64 8
  %8 = load i8, ptr %7, align 4, !tbaa !4
  %9 = and i8 %8, 48
  %.not = icmp eq i8 %9, 0
  br i1 %.not, label %10, label %15

10:                                               ; preds = %4
  %11 = getelementptr inbounds nuw i8, ptr %2, i64 8
  %12 = load i8, ptr %11, align 4, !tbaa !4
  %13 = zext i8 %12 to i32
  %14 = and i32 %13, 48
  %.not36 = icmp eq i32 %14, 0
  br i1 %.not36, label %17, label %15

15:                                               ; preds = %10, %4
  %16 = call fastcc ptr @decNaNs(ptr noundef %0, ptr noundef nonnull %1, ptr noundef %2, ptr noundef %3, ptr noundef %5)
  br label %47

17:                                               ; preds = %10
  %18 = and i32 %13, 64
  %.not37 = icmp eq i32 %18, 0
  br i1 %.not37, label %19, label %.thread45

19:                                               ; preds = %17
  %20 = getelementptr inbounds nuw i8, ptr %2, i64 4
  %21 = load i32, ptr %20, align 4, !tbaa !9
  %.not38 = icmp eq i32 %21, 0
  br i1 %.not38, label %22, label %.thread45

22:                                               ; preds = %19
  %23 = tail call fastcc i32 @decGetInt(ptr noundef nonnull %2)
  switch i32 %23, label %24 [
    i32 -2147483645, label %.thread45
    i32 -2147483646, label %.thread45
    i32 -2147483648, label %.thread45
  ]

24:                                               ; preds = %22
  %25 = tail call i32 @llvm.abs.i32(i32 %23, i1 true)
  %26 = add nuw nsw i32 %25, 1
  %27 = lshr i32 %26, 1
  %28 = load i32, ptr %3, align 4, !tbaa !25
  %29 = getelementptr inbounds nuw i8, ptr %3, i64 4
  %30 = load i32, ptr %29, align 4, !tbaa !31
  %31 = add nsw i32 %30, %28
  %32 = icmp sgt i32 %27, %31
  br i1 %32, label %.thread45, label %33

33:                                               ; preds = %24
  %34 = tail call ptr @decNumberCopy(ptr noundef %0, ptr noundef nonnull %1)
  %35 = getelementptr inbounds nuw i8, ptr %0, i64 8
  %36 = load i8, ptr %35, align 4, !tbaa !4
  %37 = and i8 %36, 64
  %.not39 = icmp eq i8 %37, 0
  br i1 %.not39, label %38, label %47

38:                                               ; preds = %33
  %39 = getelementptr inbounds nuw i8, ptr %0, i64 4
  %40 = load i32, ptr %39, align 4, !tbaa !9
  %41 = add nsw i32 %40, %23
  %42 = xor i32 %40, %23
  %43 = icmp sgt i32 %42, -1
  %44 = xor i32 %41, %40
  %45 = icmp slt i32 %44, 0
  %or.cond = select i1 %43, i1 %45, i1 false
  %46 = icmp slt i32 %40, 0
  %. = select i1 %46, i32 -1999999998, i32 1000000000
  %storemerge = select i1 %or.cond, i32 %., i32 %41
  store i32 %storemerge, ptr %39, align 4, !tbaa !9
  store i32 0, ptr %6, align 4, !tbaa !16
  call fastcc void @decFinalize(ptr noundef nonnull %0, ptr noundef nonnull %3, ptr noundef %6, ptr noundef %5)
  br label %47

47:                                               ; preds = %33, %38, %15
  %.pr = load i32, ptr %5, align 4, !tbaa !16
  %.not40 = icmp eq i32 %.pr, 0
  br i1 %.not40, label %59, label %48

48:                                               ; preds = %47
  %49 = and i32 %.pr, 221
  %.not.i = icmp eq i32 %49, 0
  br i1 %.not.i, label %decStatus.exit, label %50

50:                                               ; preds = %48
  %51 = and i32 %.pr, 1073741824
  %.not6.i = icmp eq i32 %51, 0
  br i1 %.not6.i, label %.thread45, label %52

52:                                               ; preds = %50
  %53 = and i32 %.pr, -1073741825
  br label %decStatus.exit

.thread45:                                        ; preds = %24, %22, %22, %22, %17, %19, %50
  %54 = phi i32 [ %.pr, %50 ], [ 128, %19 ], [ 128, %17 ], [ 128, %22 ], [ 128, %22 ], [ 128, %22 ], [ 128, %24 ]
  %55 = getelementptr inbounds nuw i8, ptr %0, i64 8
  %56 = getelementptr inbounds nuw i8, ptr %0, i64 4
  store i32 0, ptr %56, align 4, !tbaa !9
  store i32 1, ptr %0, align 4, !tbaa !10
  %57 = getelementptr inbounds nuw i8, ptr %0, i64 10
  store i16 0, ptr %57, align 2, !tbaa !11
  store i8 32, ptr %55, align 4, !tbaa !4
  br label %decStatus.exit

decStatus.exit:                                   ; preds = %48, %52, %.thread45
  %.0.i = phi i32 [ %53, %52 ], [ %54, %.thread45 ], [ %.pr, %48 ]
  %58 = tail call ptr @decContextSetStatus(ptr noundef %3, i32 noundef %.0.i) #18
  br label %59

59:                                               ; preds = %decStatus.exit, %47
  call void @llvm.lifetime.end.p0(i64 4, ptr nonnull %6) #18
  call void @llvm.lifetime.end.p0(i64 4, ptr nonnull %5) #18
  ret ptr %0
}